target datalayout = "e-m:e-p270:32:32-p271:32:32-p272:64:64-i64:64-i128:128-f80:128-n8:16:32:64-S128"
target triple = "x86_64-pc-linux-gnu"

%struct.promisor_remote_config = type { ptr, ptr }
%struct.promisor_remote = type { ptr, ptr, [0 x i8] }
%struct.repository = type { ptr, ptr, ptr, ptr, ptr, %struct.strmap, %struct.strmap, %struct.repo_path_cache, ptr, ptr, ptr, ptr, %struct.repo_settings, ptr, ptr, ptr, ptr, ptr, ptr, i32, i32, i32, ptr, ptr, i32, i32, i8 }
%struct.strmap = type { %struct.hashmap, ptr, i8 }
%struct.hashmap = type { ptr, ptr, ptr, i32, i32, i32, i32, i8 }
%struct.repo_path_cache = type { ptr, ptr, ptr, ptr, ptr, ptr, ptr }
%struct.repo_settings = type { i32, i32, i32, i32, i32, i32, i32, i32, i32, i32, i32, i32, ptr, i32, i32, i32, i32, i32, i32, i32, i64, i64, i64 }

; Function Attrs: nounwind uwtable
define internal void @promisor_remote_move_to_tail(ptr noundef %0, ptr noundef %1, ptr noundef %2) #0 {
  %4 = alloca ptr, align 8
  %5 = alloca ptr, align 8
  %6 = alloca ptr, align 8
  store ptr %0, ptr %4, align 8, !tbaa !4
  store ptr %1, ptr %5, align 8, !tbaa !13
  store ptr %2, ptr %6, align 8, !tbaa !13
  %7 = load ptr, ptr %5, align 8, !tbaa !13
  %8 = getelementptr inbounds nuw %struct.promisor_remote, ptr %7, i32 0, i32 0
  %9 = load ptr, ptr %8, align 8, !tbaa !13
  %10 = icmp ne ptr %9, null
  br i1 %10, label %12, label %11

11:                                               ; preds = %3
  br label %47

12:                                               ; preds = %3
  %13 = load ptr, ptr %6, align 8, !tbaa !13
  %14 = icmp ne ptr %13, null
  br i1 %14, label %15, label %21

15:                                               ; preds = %12
  %16 = load ptr, ptr %5, align 8, !tbaa !13
  %17 = getelementptr inbounds nuw %struct.promisor_remote, ptr %16, i32 0, i32 0
  %18 = load ptr, ptr %17, align 8, !tbaa !13
  %19 = load ptr, ptr %6, align 8, !tbaa !13
  %20 = getelementptr inbounds nuw %struct.promisor_remote, ptr %19, i32 0, i32 0
  store ptr %18, ptr %20, align 8, !tbaa !13
  br label %36

21:                                               ; preds = %12
  %22 = load ptr, ptr %5, align 8, !tbaa !13
  %23 = getelementptr inbounds nuw %struct.promisor_remote, ptr %22, i32 0, i32 0
  %24 = load ptr, ptr %23, align 8, !tbaa !13
  %25 = icmp ne ptr %24, null
  br i1 %25, label %26, label %30

26:                                               ; preds = %21
  %27 = load ptr, ptr %5, align 8, !tbaa !13
  %28 = getelementptr inbounds nuw %struct.promisor_remote, ptr %27, i32 0, i32 0
  %29 = load ptr, ptr %28, align 8, !tbaa !13
  br label %32

30:                                               ; preds = %21
  %31 = load ptr, ptr %5, align 8, !tbaa !13
  br label %32

32:                                               ; preds = %30, %26
  %33 = phi ptr [ %29, %26 ], [ %31, %30 ]
  %34 = load ptr, ptr %4, align 8, !tbaa !4
  %35 = getelementptr inbounds nuw %struct.promisor_remote_config, ptr %34, i32 0, i32 0
  store ptr %33, ptr %35, align 8, !tbaa !9
  br label %36

36:                                               ; preds = %32, %15
  %37 = load ptr, ptr %5, align 8, !tbaa !13
  %38 = getelementptr inbounds nuw %struct.promisor_remote, ptr %37, i32 0, i32 0
  store ptr null, ptr %38, align 8, !tbaa !13
  %39 = load ptr, ptr %5, align 8, !tbaa !13
  %40 = load ptr, ptr %4, align 8, !tbaa !4
  %41 = getelementptr inbounds nuw %struct.promisor_remote_config, ptr %40, i32 0, i32 1
  %42 = load ptr, ptr %41, align 8, !tbaa !18
  store ptr %39, ptr %42, align 8, !tbaa !13
  %43 = load ptr, ptr %5, align 8, !tbaa !13
  %44 = getelementptr inbounds nuw %struct.promisor_remote, ptr %43, i32 0, i32 0
  %45 = load ptr, ptr %4, align 8, !tbaa !4
  %46 = getelementptr inbounds nuw %struct.promisor_remote_config, ptr %45, i32 0, i32 1
  store ptr %44, ptr %46, align 8, !tbaa !18
  br label %47

47:                                               ; preds = %36, %11
  ret void
}

; Function Attrs: nounwind uwtable
define internal ptr @promisor_remote_lookup(ptr noundef %0, ptr noundef %1, ptr noundef %2) #0 {
  %4 = alloca ptr, align 8
  %5 = alloca ptr, align 8
  %6 = alloca ptr, align 8
  %7 = alloca ptr, align 8
  %8 = alloca ptr, align 8
  %9 = alloca ptr, align 8
  %10 = alloca i32, align 4
  store ptr %0, ptr %5, align 8, !tbaa !4
  store ptr %1, ptr %6, align 8, !tbaa !14
  store ptr %2, ptr %7, align 8, !tbaa !41
  call void @llvm.lifetime.start.p0(i64 8, ptr %8) #8
  call void @llvm.lifetime.start.p0(i64 8, ptr %9) #8
  store ptr null, ptr %9, align 8, !tbaa !13
  %11 = load ptr, ptr %5, align 8, !tbaa !4
  %12 = getelementptr inbounds nuw %struct.promisor_remote_config, ptr %11, i32 0, i32 0
  %13 = load ptr, ptr %12, align 8, !tbaa !9
  store ptr %13, ptr %8, align 8, !tbaa !13
  br label %14

14:                                               ; preds = %33, %3
  %15 = load ptr, ptr %8, align 8, !tbaa !13
  %16 = icmp ne ptr %15, null
  br i1 %16, label %17, label %38

17:                                               ; preds = %14
  %18 = load ptr, ptr %8, align 8, !tbaa !13
  %19 = getelementptr inbounds nuw %struct.promisor_remote, ptr %18, i32 0, i32 2
  %20 = getelementptr inbounds [0 x i8], ptr %19, i64 0, i64 0
  %21 = load ptr, ptr %6, align 8, !tbaa !14
  %22 = call i32 @strcmp(ptr noundef %20, ptr noundef %21) #9
  %23 = icmp ne i32 %22, 0
  br i1 %23, label %32, label %24

24:                                               ; preds = %17
  %25 = load ptr, ptr %7, align 8, !tbaa !41
  %26 = icmp ne ptr %25, null
  br i1 %26, label %27, label %30

27:                                               ; preds = %24
  %28 = load ptr, ptr %9, align 8, !tbaa !13
  %29 = load ptr, ptr %7, align 8, !tbaa !41
  store ptr %28, ptr %29, align 8, !tbaa !13
  br label %30

30:                                               ; preds = %27, %24
  %31 = load ptr, ptr %8, align 8, !tbaa !13
  store ptr %31, ptr %4, align 8
  store i32 1, ptr %10, align 4
  br label %39

32:                                               ; preds = %17
  br label %33

33:                                               ; preds = %32
  %34 = load ptr, ptr %8, align 8, !tbaa !13
  store ptr %34, ptr %9, align 8, !tbaa !13
  %35 = load ptr, ptr %8, align 8, !tbaa !13
  %36 = getelementptr inbounds nuw %struct.promisor_remote, ptr %35, i32 0, i32 0
  %37 = load ptr, ptr %36, align 8, !tbaa !13
  store ptr %37, ptr %8, align 8, !tbaa !13
  br label %14, !llvm.loop !42

38:                                               ; preds = %14
  store ptr null, ptr %4, align 8
  store i32 1, ptr %10, align 4
  br label %39

39:                                               ; preds = %38, %30
  call void @llvm.lifetime.end.p0(i64 8, ptr %9) #8
  call void @llvm.lifetime.end.p0(i64 8, ptr %8) #8
  %40 = load ptr, ptr %4, align 8
  ret ptr %40
}

; Function Attrs: nounwind uwtable
define internal void @promisor_remote_init(ptr noundef %0) #0 {
  %2 = alloca ptr, align 8
  %3 = alloca ptr, align 8
  %4 = alloca i32, align 4
  %5 = alloca ptr, align 8
  %6 = alloca ptr, align 8
  store ptr %0, ptr %2, align 8, !tbaa !19
  call void @llvm.lifetime.start.p0(i64 8, ptr %3) #8
  %7 = load ptr, ptr %2, align 8, !tbaa !19
  %8 = getelementptr inbounds nuw %struct.repository, ptr %7, i32 0, i32 23
  %9 = load ptr, ptr %8, align 8, !tbaa !21
  %10 = icmp ne ptr %9, null
  br i1 %10, label %11, label %12

11:                                               ; preds = %1
  store i32 1, ptr %4, align 4
  br label %46

12:                                               ; preds = %1
  %13 = call ptr @xcalloc(i64 noundef 1, i64 noundef 16)
  %14 = load ptr, ptr %2, align 8, !tbaa !19
  %15 = getelementptr inbounds nuw %struct.repository, ptr %14, i32 0, i32 23
  store ptr %13, ptr %15, align 8, !tbaa !21
  store ptr %13, ptr %3, align 8, !tbaa !4
  %16 = load ptr, ptr %3, align 8, !tbaa !4
  %17 = getelementptr inbounds nuw %struct.promisor_remote_config, ptr %16, i32 0, i32 0
  %18 = load ptr, ptr %3, align 8, !tbaa !4
  %19 = getelementptr inbounds nuw %struct.promisor_remote_config, ptr %18, i32 0, i32 1
  store ptr %17, ptr %19, align 8, !tbaa !18
  %20 = load ptr, ptr %2, align 8, !tbaa !19
  %21 = load ptr, ptr %3, align 8, !tbaa !4
  call void @repo_config(ptr noundef %20, ptr noundef @promisor_remote_config, ptr noundef %21)
  %22 = load ptr, ptr %2, align 8, !tbaa !19
  %23 = getelementptr inbounds nuw %struct.repository, ptr %22, i32 0, i32 22
  %24 = load ptr, ptr %23, align 8, !tbaa !40
  %25 = icmp ne ptr %24, null
  br i1 %25, label %26, label %45

26:                                               ; preds = %12
  call void @llvm.lifetime.start.p0(i64 8, ptr %5) #8
  call void @llvm.lifetime.start.p0(i64 8, ptr %6) #8
  %27 = load ptr, ptr %3, align 8, !tbaa !4
  %28 = load ptr, ptr %2, align 8, !tbaa !19
  %29 = getelementptr inbounds nuw %struct.repository, ptr %28, i32 0, i32 22
  %30 = load ptr, ptr %29, align 8, !tbaa !40
  %31 = call ptr @promisor_remote_lookup(ptr noundef %27, ptr noundef %30, ptr noundef %6)
  store ptr %31, ptr %5, align 8, !tbaa !13
  %32 = load ptr, ptr %5, align 8, !tbaa !13
  %33 = icmp ne ptr %32, null
  br i1 %33, label %34, label %38

34:                                               ; preds = %26
  %35 = load ptr, ptr %3, align 8, !tbaa !4
  %36 = load ptr, ptr %5, align 8, !tbaa !13
  %37 = load ptr, ptr %6, align 8, !tbaa !13
  call void @promisor_remote_move_to_tail(ptr noundef %35, ptr noundef %36, ptr noundef %37)
  br label %44

38:                                               ; preds = %26
  %39 = load ptr, ptr %3, align 8, !tbaa !4
  %40 = load ptr, ptr %2, align 8, !tbaa !19
  %41 = getelementptr inbounds nuw %struct.repository, ptr %40, i32 0, i32 22
  %42 = load ptr, ptr %41, align 8, !tbaa !40
  %43 = call ptr @promisor_remote_new(ptr noundef %39, ptr noundef %42)
  br label %44

44:                                               ; preds = %38, %34
  call void @llvm.lifetime.end.p0(i64 8, ptr %6) #8
  call void @llvm.lifetime.end.p0(i64 8, ptr %5) #8
  br label %45

45:                                               ; preds = %44, %12
  store i32 0, ptr %4, align 4
  br label %46

46:                                               ; preds = %45, %11
  call void @llvm.lifetime.end.p0(i64 8, ptr %3) #8
  %47 = load i32, ptr %4, align 4
  switch i32 %47, label %49 [
    i32 0, label %48
    i32 1, label %48
  ]

48:                                               ; preds = %46, %46
  ret void

49:                                               ; preds = %46
  unreachable
}

; Function Attrs: nounwind uwtable
define dso_local void @promisor_remote_clear(ptr noundef %0) #0 {
  %2 = alloca ptr, align 8
  %3 = alloca ptr, align 8
  store ptr %0, ptr %2, align 8, !tbaa !4
  br label %4

4:                                                ; preds = %9, %1
  %5 = load ptr, ptr %2, align 8, !tbaa !4
  %6 = getelementptr inbounds nuw %struct.promisor_remote_config, ptr %5, i32 0, i32 0
  %7 = load ptr, ptr %6, align 8, !tbaa !9
  %8 = icmp ne ptr %7, null
  br i1 %8, label %9, label %24

9:                                                ; preds = %4
  call void @llvm.lifetime.start.p0(i64 8, ptr %3) #8
  %10 = load ptr, ptr %2, align 8, !tbaa !4
  %11 = getelementptr inbounds nuw %struct.promisor_remote_config, ptr %10, i32 0, i32 0
  %12 = load ptr, ptr %11, align 8, !tbaa !9
  store ptr %12, ptr %3, align 8, !tbaa !13
  %13 = load ptr, ptr %3, align 8, !tbaa !13
  %14 = getelementptr inbounds nuw %struct.promisor_remote, ptr %13, i32 0, i32 1
  %15 = load ptr, ptr %14, align 8, !tbaa !14
  call void @free(ptr noundef %15) #8
  %16 = load ptr, ptr %2, align 8, !tbaa !4
  %17 = getelementptr inbounds nuw %struct.promisor_remote_config, ptr %16, i32 0, i32 0
  %18 = load ptr, ptr %17, align 8, !tbaa !9
  %19 = getelementptr inbounds nuw %struct.promisor_remote, ptr %18, i32 0, i32 0
  %20 = load ptr, ptr %19, align 8, !tbaa !13
  %21 = load ptr, ptr %2, align 8, !tbaa !4
  %22 = getelementptr inbounds nuw %struct.promisor_remote_config, ptr %21, i32 0, i32 0
  store ptr %20, ptr %22, align 8, !tbaa !9
  %23 = load ptr, ptr %3, align 8, !tbaa !13
  call void @free(ptr noundef %23) #8
  call void @llvm.lifetime.end.p0(i64 8, ptr %3) #8
  br label %4, !llvm.loop !16

24:                                               ; preds = %4
  %25 = load ptr, ptr %2, align 8, !tbaa !4
  %26 = getelementptr inbounds nuw %struct.promisor_remote_config, ptr %25, i32 0, i32 0
  %27 = load ptr, ptr %2, align 8, !tbaa !4
  %28 = getelementptr inbounds nuw %struct.promisor_remote_config, ptr %27, i32 0, i32 1
  store ptr %26, ptr %28, align 8, !tbaa !18
  ret void
}

; Function Attrs: nounwind uwtable
define dso_local void @repo_promisor_remote_reinit(ptr noundef %0) #0 {
  %2 = alloca ptr, align 8
  store ptr %0, ptr %2, align 8, !tbaa !19
  %3 = load ptr, ptr %2, align 8, !tbaa !19
  %4 = getelementptr inbounds nuw %struct.repository, ptr %3, i32 0, i32 23
  %5 = load ptr, ptr %4, align 8, !tbaa !21
  call void @promisor_remote_clear(ptr noundef %5)
  br label %6

6:                                                ; preds = %1
  %7 = load ptr, ptr %2, align 8, !tbaa !19
  %8 = getelementptr inbounds nuw %struct.repository, ptr %7, i32 0, i32 23
  %9 = load ptr, ptr %8, align 8, !tbaa !21
  call void @free(ptr noundef %9) #8
  %10 = load ptr, ptr %2, align 8, !tbaa !19
  %11 = getelementptr inbounds nuw %struct.repository, ptr %10, i32 0, i32 23
  store ptr null, ptr %11, align 8, !tbaa !21
  br label %12

12:                                               ; preds = %6
  %13 = load ptr, ptr %2, align 8, !tbaa !19
  call void @promisor_remote_init(ptr noundef %13)
  ret void
}