; Function Attrs: nounwind uwtable
define dso_local void @repo_promisor_remote_reinit(ptr noundef %0) local_unnamed_addr #0 {
  %2 = getelementptr inbounds nuw i8, ptr %0, i64 440
  %3 = load ptr, ptr %2, align 8, !tbaa !17
  %4 = load ptr, ptr %3, align 8, !tbaa !4
  %.not8.i = icmp eq ptr %4, null
  br i1 %.not8.i, label %.loopexit, label %.lr.ph.i

.lr.ph.i:                                         ; preds = %1, %.lr.ph.i
  %5 = phi ptr [ %10, %.lr.ph.i ], [ %4, %1 ]
  %6 = getelementptr inbounds nuw i8, ptr %5, i64 8
  %7 = load ptr, ptr %6, align 8, !tbaa !11
  tail call void @free(ptr noundef %7) #10
  %8 = load ptr, ptr %3, align 8, !tbaa !4
  %9 = load ptr, ptr %8, align 8, !tbaa !13
  store ptr %9, ptr %3, align 8, !tbaa !4
  tail call void @free(ptr noundef nonnull %5) #10
  %10 = load ptr, ptr %3, align 8, !tbaa !4
  %.not.i = icmp eq ptr %10, null
  br i1 %.not.i, label %.loopexit.loopexit, label %.lr.ph.i, !llvm.loop !14

.loopexit.loopexit:                               ; preds = %.lr.ph.i
  %.pre = load ptr, ptr %2, align 8, !tbaa !17
  br label %.loopexit

.loopexit:                                        ; preds = %.loopexit.loopexit, %1
  %11 = phi ptr [ %.pre, %.loopexit.loopexit ], [ %3, %1 ]
  %12 = getelementptr inbounds nuw i8, ptr %3, i64 8
  store ptr %3, ptr %12, align 8, !tbaa !16
  tail call void @free(ptr noundef %11) #10
  store ptr null, ptr %2, align 8, !tbaa !17
  %13 = tail call ptr @xcalloc(i64 noundef 1, i64 noundef 16) #10
  store ptr %13, ptr %2, align 8, !tbaa !17
  %14 = getelementptr inbounds nuw i8, ptr %13, i64 8
  store ptr %13, ptr %14, align 8, !tbaa !16
  tail call void @repo_config(ptr noundef nonnull %0, ptr noundef nonnull @promisor_remote_config, ptr noundef %13) #10
  %15 = getelementptr inbounds nuw i8, ptr %0, i64 432
  %16 = load ptr, ptr %15, align 8, !tbaa !37
  %.not14.i = icmp eq ptr %16, null
  br i1 %.not14.i, label %promisor_remote_init.exit, label %.preheader.i

.preheader.i:                                     ; preds = %.loopexit, %17
  %.011.in.i.i = phi ptr [ %.011.i.i, %17 ], [ %13, %.loopexit ]
  %.0.i.i = phi ptr [ %.011.i.i, %17 ], [ null, %.loopexit ]
  %.011.i.i = load ptr, ptr %.011.in.i.i, align 8, !tbaa !13
  %.not.i.i = icmp eq ptr %.011.i.i, null
  br i1 %.not.i.i, label %23, label %17

17:                                               ; preds = %.preheader.i
  %18 = getelementptr inbounds nuw i8, ptr %.011.i.i, i64 16
  %19 = tail call i32 @strcmp(ptr noundef nonnull dereferenceable(1) %18, ptr noundef nonnull readonly dereferenceable(1) %16) #11
  %.not14.i.i = icmp eq i32 %19, 0
  br i1 %.not14.i.i, label %promisor_remote_lookup.exit.i, label %.preheader.i, !llvm.loop !38

promisor_remote_lookup.exit.i:                    ; preds = %17
  %20 = load ptr, ptr %.011.i.i, align 8, !tbaa !13
  %.not.i16.i = icmp eq ptr %20, null
  br i1 %.not.i16.i, label %promisor_remote_init.exit, label %21

21:                                               ; preds = %promisor_remote_lookup.exit.i
  %.not14.i17.i = icmp eq ptr %.0.i.i, null
  %..i.i = select i1 %.not14.i17.i, ptr %13, ptr %.0.i.i
  store ptr %20, ptr %..i.i, align 8, !tbaa !13
  store ptr null, ptr %.011.i.i, align 8, !tbaa !13
  %22 = load ptr, ptr %14, align 8, !tbaa !16
  store ptr %.011.i.i, ptr %22, align 8, !tbaa !13
  store ptr %.011.i.i, ptr %14, align 8, !tbaa !16
  br label %promisor_remote_init.exit

23:                                               ; preds = %.preheader.i
  %24 = tail call fastcc ptr @promisor_remote_new(ptr noundef %13, ptr noundef nonnull %16)
  br label %promisor_remote_init.exit

promisor_remote_init.exit:                        ; preds = %.loopexit, %promisor_remote_lookup.exit.i, %21, %23
  ret void
}